; Function Attrs: nofree nounwind uwtable
define internal noalias noundef ptr @newitem(ptr noundef readonly captures(none) %0, ptr readnone captures(none) %1) #0 {
  %3 = tail call noalias dereferenceable_or_null(72) ptr @calloc(i64 noundef 1, i64 noundef range(i64 8, 73) 72) #17
  %4 = icmp eq ptr %3, null
  br i1 %4, label %5, label %gv_alloc.exit

5:                                                ; preds = %2
  %6 = load ptr, ptr @stderr, align 8, !tbaa !3
  %7 = tail call i32 (ptr, ptr, ...) @fprintf(ptr noundef %6, ptr noundef nonnull @.str.6, i64 noundef 72) #18
  tail call fastcc void @graphviz_exit() #19
  unreachable

gv_alloc.exit:                                    ; preds = %2
  %8 = getelementptr inbounds nuw i8, ptr %3, i64 16
  %9 = getelementptr inbounds nuw i8, ptr %0, i64 16
  tail call void @llvm.memcpy.p0.p0.i64(ptr noundef nonnull align 8 dereferenceable(48) %8, ptr noundef nonnull align 8 dereferenceable(48) %9, i64 48, i1 false), !tbaa.struct !8
  %10 = getelementptr inbounds nuw i8, ptr %0, i64 64
  %11 = load ptr, ptr %10, align 8, !tbaa !13
  %12 = getelementptr inbounds nuw i8, ptr %3, i64 64
  store ptr %11, ptr %12, align 8, !tbaa !13
  %13 = getelementptr inbounds nuw i8, ptr %11, i64 16
  %14 = load ptr, ptr %13, align 8, !tbaa !20
  %15 = getelementptr inbounds nuw i8, ptr %14, i64 224
  store i16 1, ptr %15, align 8, !tbaa !26
  ret ptr %3
}